target datalayout = "e-m:e-p270:32:32-p271:32:32-p272:64:64-i64:64-i128:128-f80:128-n8:16:32:64-S128"
target triple = "x86_64-pc-linux-gnu"

@hf_rr_tmsi_avail_msk_tmsi = internal global [4 x i32] zeroinitializer, align 16

; Function Attrs: null_pointer_is_valid sspstrong uwtable
define internal zeroext i16 @gmr1_ie_rr_tmsi_avail_msk(ptr noundef %0, ptr noundef %1, ptr noundef %2, i32 noundef %3, i32 noundef %4, ptr noundef %5, i32 noundef %6) #1 {
  %8 = alloca ptr, align 8
  %9 = alloca ptr, align 8
  %10 = alloca ptr, align 8
  %11 = alloca i32, align 4
  %12 = alloca i32, align 4
  %13 = alloca ptr, align 8
  %14 = alloca i32, align 4
  %15 = alloca i32, align 4
  store ptr %0, ptr %8, align 8
  store ptr %1, ptr %9, align 8
  store ptr %2, ptr %10, align 8
  store i32 %3, ptr %11, align 4
  store i32 %4, ptr %12, align 4
  store ptr %5, ptr %13, align 8
  store i32 %6, ptr %14, align 4
  call void @llvm.lifetime.start.p0(i64 4, ptr %15) #5
  store i32 0, ptr %15, align 4
  br label %16

16:                                               ; preds = %28, %7
  %17 = load i32, ptr %15, align 4
  %18 = icmp slt i32 %17, 4
  br i1 %18, label %19, label %31

19:                                               ; preds = %16
  %20 = load ptr, ptr %9, align 8
  %21 = load i32, ptr %15, align 4
  %22 = sext i32 %21 to i64
  %23 = getelementptr [4 x i32], ptr @hf_rr_tmsi_avail_msk_tmsi, i64 0, i64 %22
  %24 = load i32, ptr %23, align 4
  %25 = load ptr, ptr %8, align 8
  %26 = load i32, ptr %11, align 4
  %27 = call ptr @proto_tree_add_item(ptr noundef %20, i32 noundef %24, ptr noundef %25, i32 noundef %26, i32 noundef 1, i32 noundef 0)
  br label %28

28:                                               ; preds = %19
  %29 = load i32, ptr %15, align 4
  %30 = add i32 %29, 1
  store i32 %30, ptr %15, align 4
  br label %16, !llvm.loop !8

31:                                               ; preds = %16
  call void @llvm.lifetime.end.p0(i64 4, ptr %15) #5
  ret i16 1
}